; Function Attrs: nounwind uwtable
define internal fastcc void @logicalrep_write_prepare_common(ptr noundef %0, i32 noundef range(i32 80, 113) %1, ptr noundef readonly captures(none) %2, i64 noundef %3) unnamed_addr #0 {
  %5 = trunc nuw nsw i32 %1 to i8
  tail call void @enlargeStringInfo(ptr noundef %0, i32 noundef 1) #8
  tail call void @llvm.experimental.noalias.scope.decl(metadata !46)
  %6 = load ptr, ptr %0, align 8, !alias.scope !46
  %7 = getelementptr inbounds nuw i8, ptr %0, i64 8
  %8 = load i32, ptr %7, align 8, !alias.scope !46
  %9 = sext i32 %8 to i64
  %10 = getelementptr inbounds i8, ptr %6, i64 %9
  store i8 %5, ptr %10, align 1, !noalias !46
  %11 = add i32 %8, 1
  store i32 %11, ptr %7, align 8, !alias.scope !46
  tail call void @enlargeStringInfo(ptr noundef nonnull %0, i32 noundef 1) #8
  tail call void @llvm.experimental.noalias.scope.decl(metadata !49)
  %12 = load ptr, ptr %0, align 8, !alias.scope !49
  %13 = load i32, ptr %7, align 8, !alias.scope !49
  %14 = sext i32 %13 to i64
  %15 = getelementptr inbounds i8, ptr %12, i64 %14
  store i8 0, ptr %15, align 1, !noalias !49
  %16 = add i32 %13, 1
  store i32 %16, ptr %7, align 8, !alias.scope !49
  tail call void @enlargeStringInfo(ptr noundef nonnull %0, i32 noundef 8) #8
  tail call void @llvm.experimental.noalias.scope.decl(metadata !52)
  %17 = tail call i64 @llvm.bswap.i64(i64 %3)
  %18 = load ptr, ptr %0, align 8, !alias.scope !52
  %19 = load i32, ptr %7, align 8, !alias.scope !52
  %20 = sext i32 %19 to i64
  %21 = getelementptr inbounds i8, ptr %18, i64 %20
  store i64 %17, ptr %21, align 1, !noalias !52
  %22 = add i32 %19, 8
  store i32 %22, ptr %7, align 8, !alias.scope !52
  %23 = getelementptr inbounds nuw i8, ptr %2, i64 40
  %24 = load i64, ptr %23, align 8
  tail call void @enlargeStringInfo(ptr noundef nonnull %0, i32 noundef 8) #8
  tail call void @llvm.experimental.noalias.scope.decl(metadata !55)
  %25 = tail call i64 @llvm.bswap.i64(i64 %24)
  %26 = load ptr, ptr %0, align 8, !alias.scope !55
  %27 = load i32, ptr %7, align 8, !alias.scope !55
  %28 = sext i32 %27 to i64
  %29 = getelementptr inbounds i8, ptr %26, i64 %28
  store i64 %25, ptr %29, align 1, !noalias !55
  %30 = add i32 %27, 8
  store i32 %30, ptr %7, align 8, !alias.scope !55
  %31 = getelementptr inbounds nuw i8, ptr %2, i64 80
  %32 = load i64, ptr %31, align 8
  tail call void @enlargeStringInfo(ptr noundef nonnull %0, i32 noundef 8) #8
  tail call void @llvm.experimental.noalias.scope.decl(metadata !58)
  %33 = tail call i64 @llvm.bswap.i64(i64 %32)
  %34 = load ptr, ptr %0, align 8, !alias.scope !58
  %35 = load i32, ptr %7, align 8, !alias.scope !58
  %36 = sext i32 %35 to i64
  %37 = getelementptr inbounds i8, ptr %34, i64 %36
  store i64 %33, ptr %37, align 1, !noalias !58
  %38 = add i32 %35, 8
  store i32 %38, ptr %7, align 8, !alias.scope !58
  %39 = getelementptr inbounds nuw i8, ptr %2, i64 4
  %40 = load i32, ptr %39, align 4
  tail call void @enlargeStringInfo(ptr noundef nonnull %0, i32 noundef 4) #8
  tail call void @llvm.experimental.noalias.scope.decl(metadata !61)
  %41 = tail call i32 @llvm.bswap.i32(i32 %40)
  %42 = load ptr, ptr %0, align 8, !alias.scope !61
  %43 = load i32, ptr %7, align 8, !alias.scope !61
  %44 = sext i32 %43 to i64
  %45 = getelementptr inbounds i8, ptr %42, i64 %44
  store i32 %41, ptr %45, align 1, !noalias !61
  %46 = add i32 %43, 4
  store i32 %46, ptr %7, align 8, !alias.scope !61
  %47 = getelementptr inbounds nuw i8, ptr %2, i64 16
  %48 = load ptr, ptr %47, align 8
  tail call void @pq_sendstring(ptr noundef nonnull %0, ptr noundef %48) #8
  ret void
}